; Function Attrs: nounwind uwtable
define i32 @exr_attr_get_m33f(ptr noundef %0, i32 noundef %1, ptr noundef %2, ptr noundef writeonly %3) local_unnamed_addr #0 {
  %5 = alloca ptr, align 8
  call void @llvm.lifetime.start.p0(i64 8, ptr nonnull %5) #6
  %.not = icmp eq ptr %0, null
  br i1 %.not, label %91, label %6

6:                                                ; preds = %4
  %7 = load i8, ptr %0, align 8, !tbaa !3
  %8 = icmp eq i8 %7, 1
  br i1 %8, label %9, label %12

9:                                                ; preds = %6
  %10 = getelementptr inbounds nuw i8, ptr %0, i64 504
  %11 = tail call i32 @pthread_mutex_lock(ptr noundef nonnull %10) #6
  br label %12

12:                                               ; preds = %9, %6
  %13 = icmp slt i32 %1, 0
  br i1 %13, label %17, label %14

14:                                               ; preds = %12
  %15 = getelementptr inbounds nuw i8, ptr %0, i64 196
  %16 = load i32, ptr %15, align 4, !tbaa !22
  %.not46 = icmp slt i32 %1, %16
  br i1 %.not46, label %27, label %17

17:                                               ; preds = %14, %12
  %18 = load i8, ptr %0, align 8, !tbaa !3
  %19 = icmp eq i8 %18, 1
  br i1 %19, label %20, label %23

20:                                               ; preds = %17
  %21 = getelementptr inbounds nuw i8, ptr %0, i64 504
  %22 = tail call i32 @pthread_mutex_unlock(ptr noundef nonnull %21) #6
  br label %23

23:                                               ; preds = %20, %17
  %24 = getelementptr inbounds nuw i8, ptr %0, i64 72
  %25 = load ptr, ptr %24, align 8, !tbaa !23
  %26 = tail call i32 (ptr, i32, ptr, ...) %25(ptr noundef nonnull %0, i32 noundef 4, ptr noundef nonnull @.str, i32 noundef %1) #6
  br label %91

27:                                               ; preds = %14
  %28 = getelementptr inbounds nuw i8, ptr %0, i64 472
  %29 = load ptr, ptr %28, align 8, !tbaa !24
  %30 = zext nneg i32 %1 to i64
  %31 = getelementptr inbounds nuw ptr, ptr %29, i64 %30
  %32 = load ptr, ptr %31, align 8, !tbaa !25
  %.not47 = icmp eq ptr %2, null
  br i1 %.not47, label %36, label %33

33:                                               ; preds = %27
  %34 = load i8, ptr %2, align 1, !tbaa !35
  %35 = icmp eq i8 %34, 0
  br i1 %35, label %36, label %46

36:                                               ; preds = %33, %27
  %37 = load i8, ptr %0, align 8, !tbaa !3
  %38 = icmp eq i8 %37, 1
  br i1 %38, label %39, label %42

39:                                               ; preds = %36
  %40 = getelementptr inbounds nuw i8, ptr %0, i64 504
  %41 = tail call i32 @pthread_mutex_unlock(ptr noundef nonnull %40) #6
  br label %42

42:                                               ; preds = %36, %39
  %43 = getelementptr inbounds nuw i8, ptr %0, i64 64
  %44 = load ptr, ptr %43, align 8, !tbaa !38
  %45 = tail call i32 %44(ptr noundef nonnull %0, i32 noundef 3, ptr noundef nonnull @.str.61) #6
  br label %91

46:                                               ; preds = %33
  %47 = getelementptr inbounds nuw i8, ptr %32, i64 8
  %48 = call i32 @exr_attr_list_find_by_name(ptr noundef nonnull %0, ptr noundef nonnull %47, ptr noundef nonnull %2, ptr noundef nonnull %5) #6
  %.not48 = icmp eq i32 %48, 0
  br i1 %.not48, label %55, label %49

49:                                               ; preds = %46
  %50 = load i8, ptr %0, align 8, !tbaa !3
  %51 = icmp eq i8 %50, 1
  br i1 %51, label %52, label %91

52:                                               ; preds = %49
  %53 = getelementptr inbounds nuw i8, ptr %0, i64 504
  %54 = call i32 @pthread_mutex_unlock(ptr noundef nonnull %53) #6
  br label %91

55:                                               ; preds = %46
  %56 = load ptr, ptr %5, align 8, !tbaa !30
  %57 = getelementptr inbounds nuw i8, ptr %56, i64 20
  %58 = load i32, ptr %57, align 4, !tbaa !32
  %.not49 = icmp eq i32 %58, 13
  br i1 %.not49, label %72, label %59

59:                                               ; preds = %55
  %60 = load i8, ptr %0, align 8, !tbaa !3
  %61 = icmp eq i8 %60, 1
  br i1 %61, label %62, label %65

62:                                               ; preds = %59
  %63 = getelementptr inbounds nuw i8, ptr %0, i64 504
  %64 = call i32 @pthread_mutex_unlock(ptr noundef nonnull %63) #6
  %.pre = load ptr, ptr %5, align 8, !tbaa !30
  br label %65

65:                                               ; preds = %59, %62
  %66 = phi ptr [ %56, %59 ], [ %.pre, %62 ]
  %67 = getelementptr inbounds nuw i8, ptr %0, i64 72
  %68 = load ptr, ptr %67, align 8, !tbaa !23
  %69 = getelementptr inbounds nuw i8, ptr %66, i64 8
  %70 = load ptr, ptr %69, align 8, !tbaa !34
  %71 = call i32 (ptr, i32, ptr, ...) %68(ptr noundef nonnull %0, i32 noundef 16, ptr noundef nonnull @.str.62, ptr noundef nonnull %2, ptr noundef %70) #6
  br label %91

72:                                               ; preds = %55
  %.not50 = icmp eq ptr %3, null
  br i1 %.not50, label %73, label %83

73:                                               ; preds = %72
  %74 = load i8, ptr %0, align 8, !tbaa !3
  %75 = icmp eq i8 %74, 1
  br i1 %75, label %76, label %79

76:                                               ; preds = %73
  %77 = getelementptr inbounds nuw i8, ptr %0, i64 504
  %78 = call i32 @pthread_mutex_unlock(ptr noundef nonnull %77) #6
  br label %79

79:                                               ; preds = %73, %76
  %80 = getelementptr inbounds nuw i8, ptr %0, i64 72
  %81 = load ptr, ptr %80, align 8, !tbaa !23
  %82 = call i32 (ptr, i32, ptr, ...) %81(ptr noundef nonnull %0, i32 noundef 3, ptr noundef nonnull @.str.2, ptr noundef nonnull %2) #6
  br label %91

83:                                               ; preds = %72
  %84 = getelementptr inbounds nuw i8, ptr %56, i64 24
  %85 = load ptr, ptr %84, align 8, !tbaa !35
  call void @llvm.memcpy.p0.p0.i64(ptr noundef nonnull align 1 dereferenceable(36) %3, ptr noundef nonnull align 1 dereferenceable(36) %85, i64 36, i1 false), !tbaa.struct !62
  %86 = load i8, ptr %0, align 8, !tbaa !3
  %87 = icmp eq i8 %86, 1
  br i1 %87, label %88, label %91

88:                                               ; preds = %83
  %89 = getelementptr inbounds nuw i8, ptr %0, i64 504
  %90 = call i32 @pthread_mutex_unlock(ptr noundef nonnull %89) #6
  br label %91

91:                                               ; preds = %88, %83, %52, %49, %4, %79, %65, %42, %23
  %.0 = phi i32 [ %26, %23 ], [ %45, %42 ], [ %71, %65 ], [ %82, %79 ], [ 2, %4 ], [ %48, %49 ], [ %48, %52 ], [ 0, %83 ], [ 0, %88 ]
  call void @llvm.lifetime.end.p0(i64 8, ptr nonnull %5) #6
  ret i32 %.0
}